; Function Attrs: nounwind uwtable
define ptr @l_IO_Promise_result___rarg___boxed(ptr noundef %0) #0 {
  %2 = tail call ptr @lean_io_promise_result_opt(ptr noundef %0) #3
  %3 = load ptr, ptr @l_IO_Promise_result_x21___rarg___closed__1, align 8, !tbaa !10
  %4 = load ptr, ptr @l_Task_Priority_default, align 8, !tbaa !10
  %5 = ptrtoint ptr %4 to i64
  %6 = lshr i64 %5, 1
  %7 = trunc i64 %6 to i32
  %8 = tail call ptr @lean_task_map_core(ptr noundef %3, ptr noundef %2, i32 noundef %7, i1 noundef zeroext true, i1 noundef zeroext false) #3
  %9 = ptrtoint ptr %0 to i64
  %10 = and i64 %9, 1
  %.not = icmp eq i64 %10, 0
  br i1 %.not, label %11, label %lean_dec.exit

11:                                               ; preds = %1
  %12 = load i32, ptr %0, align 4, !tbaa !4
  %13 = icmp sgt i32 %12, 1
  br i1 %13, label %14, label %16, !prof !9

14:                                               ; preds = %11
  %15 = add nsw i32 %12, -1
  store i32 %15, ptr %0, align 4, !tbaa !4
  br label %lean_dec.exit

16:                                               ; preds = %11
  %.not.i = icmp eq i32 %12, 0
  br i1 %.not.i, label %lean_dec.exit, label %17

17:                                               ; preds = %16
  tail call void @lean_dec_ref_cold(ptr noundef nonnull %0) #3
  br label %lean_dec.exit

lean_dec.exit:                                    ; preds = %17, %16, %14, %1
  ret ptr %8
}